; Function Attrs: mustprogress uwtable
define void @_ZNK5arrow18AdaptiveIntBuilder4typeEv(ptr noalias nocapture writeonly sret(%"class.std::shared_ptr.10") align 8 %agg.result, ptr noundef nonnull align 8 dereferenceable(9397) %this) unnamed_addr #1 align 2 personality ptr @__gxx_personality_v0 {
entry:
  %int_size_ = getelementptr inbounds i8, ptr %this, i64 169
  %0 = load i8, ptr %int_size_, align 1
  %pending_pos_ = getelementptr inbounds i8, ptr %this, i64 9392
  %1 = load i32, ptr %pending_pos_, align 8
  %cmp.not = icmp eq i32 %1, 0
  br i1 %cmp.not, label %if.end, label %if.then

if.then:                                          ; preds = %entry
  %pending_has_nulls_ = getelementptr inbounds i8, ptr %this, i64 9396
  %2 = load i8, ptr %pending_has_nulls_, align 4
  %3 = and i8 %2, 1
  %tobool.not = icmp eq i8 %3, 0
  %pending_valid_ = getelementptr inbounds i8, ptr %this, i64 170
  %cond = select i1 %tobool.not, ptr null, ptr %pending_valid_
  %pending_data_ = getelementptr inbounds i8, ptr %this, i64 1200
  %conv = sext i32 %1 to i64
  %call = tail call noundef zeroext i8 @_ZN5arrow8internal14DetectIntWidthEPKlPKhlh(ptr noundef nonnull %pending_data_, ptr noundef %cond, i64 noundef %conv, i8 noundef zeroext %0)
  br label %if.end

if.end:                                           ; preds = %if.then, %entry
  %int_size.0 = phi i8 [ %call, %if.then ], [ %0, %entry ]
  switch i8 %int_size.0, label %sw.epilog [
    i8 1, label %sw.bb
    i8 2, label %sw.bb7
    i8 4, label %sw.bb9
    i8 8, label %sw.bb11
  ]

sw.bb:                                            ; preds = %if.end
  %call6 = tail call noundef nonnull align 8 dereferenceable(16) ptr @_ZN5arrow4int8Ev()
  %4 = load <2 x ptr>, ptr %call6, align 8
  store <2 x ptr> %4, ptr %agg.result, align 8
  %5 = extractelement <2 x ptr> %4, i64 1
  %cmp.not.i.i.i = icmp eq ptr %5, null
  br i1 %cmp.not.i.i.i, label %return, label %if.then.i.i.i

if.then.i.i.i:                                    ; preds = %sw.bb
  %_M_use_count.i.i.i.i = getelementptr inbounds i8, ptr %5, i64 8
  %6 = load i8, ptr @__libc_single_threaded, align 1
  %tobool.i.i.not.i.i.i.i = icmp eq i8 %6, 0
  br i1 %tobool.i.i.not.i.i.i.i, label %if.else.i.i.i.i.i, label %if.then.i.i.i.i.i

if.then.i.i.i.i.i:                                ; preds = %if.then.i.i.i
  %7 = load i32, ptr %_M_use_count.i.i.i.i, align 4
  %add.i.i.i.i.i = add nsw i32 %7, 1
  store i32 %add.i.i.i.i.i, ptr %_M_use_count.i.i.i.i, align 4
  br label %return

if.else.i.i.i.i.i:                                ; preds = %if.then.i.i.i
  %8 = atomicrmw volatile add ptr %_M_use_count.i.i.i.i, i32 1 acq_rel, align 4
  br label %return

sw.bb7:                                           ; preds = %if.end
  %call8 = tail call noundef nonnull align 8 dereferenceable(16) ptr @_ZN5arrow5int16Ev()
  %9 = load <2 x ptr>, ptr %call8, align 8
  store <2 x ptr> %9, ptr %agg.result, align 8
  %10 = extractelement <2 x ptr> %9, i64 1
  %cmp.not.i.i.i3 = icmp eq ptr %10, null
  br i1 %cmp.not.i.i.i3, label %return, label %if.then.i.i.i4

if.then.i.i.i4:                                   ; preds = %sw.bb7
  %_M_use_count.i.i.i.i5 = getelementptr inbounds i8, ptr %10, i64 8
  %11 = load i8, ptr @__libc_single_threaded, align 1
  %tobool.i.i.not.i.i.i.i6 = icmp eq i8 %11, 0
  br i1 %tobool.i.i.not.i.i.i.i6, label %if.else.i.i.i.i.i9, label %if.then.i.i.i.i.i7

if.then.i.i.i.i.i7:                               ; preds = %if.then.i.i.i4
  %12 = load i32, ptr %_M_use_count.i.i.i.i5, align 4
  %add.i.i.i.i.i8 = add nsw i32 %12, 1
  store i32 %add.i.i.i.i.i8, ptr %_M_use_count.i.i.i.i5, align 4
  br label %return

if.else.i.i.i.i.i9:                               ; preds = %if.then.i.i.i4
  %13 = atomicrmw volatile add ptr %_M_use_count.i.i.i.i5, i32 1 acq_rel, align 4
  br label %return

sw.bb9:                                           ; preds = %if.end
  %call10 = tail call noundef nonnull align 8 dereferenceable(16) ptr @_ZN5arrow5int32Ev()
  %14 = load <2 x ptr>, ptr %call10, align 8
  store <2 x ptr> %14, ptr %agg.result, align 8
  %15 = extractelement <2 x ptr> %14, i64 1
  %cmp.not.i.i.i13 = icmp eq ptr %15, null
  br i1 %cmp.not.i.i.i13, label %return, label %if.then.i.i.i14

if.then.i.i.i14:                                  ; preds = %sw.bb9
  %_M_use_count.i.i.i.i15 = getelementptr inbounds i8, ptr %15, i64 8
  %16 = load i8, ptr @__libc_single_threaded, align 1
  %tobool.i.i.not.i.i.i.i16 = icmp eq i8 %16, 0
  br i1 %tobool.i.i.not.i.i.i.i16, label %if.else.i.i.i.i.i19, label %if.then.i.i.i.i.i17

if.then.i.i.i.i.i17:                              ; preds = %if.then.i.i.i14
  %17 = load i32, ptr %_M_use_count.i.i.i.i15, align 4
  %add.i.i.i.i.i18 = add nsw i32 %17, 1
  store i32 %add.i.i.i.i.i18, ptr %_M_use_count.i.i.i.i15, align 4
  br label %return

if.else.i.i.i.i.i19:                              ; preds = %if.then.i.i.i14
  %18 = atomicrmw volatile add ptr %_M_use_count.i.i.i.i15, i32 1 acq_rel, align 4
  br label %return

sw.bb11:                                          ; preds = %if.end
  %call12 = tail call noundef nonnull align 8 dereferenceable(16) ptr @_ZN5arrow5int64Ev()
  %19 = load <2 x ptr>, ptr %call12, align 8
  store <2 x ptr> %19, ptr %agg.result, align 8
  %20 = extractelement <2 x ptr> %19, i64 1
  %cmp.not.i.i.i23 = icmp eq ptr %20, null
  br i1 %cmp.not.i.i.i23, label %return, label %if.then.i.i.i24

if.then.i.i.i24:                                  ; preds = %sw.bb11
  %_M_use_count.i.i.i.i25 = getelementptr inbounds i8, ptr %20, i64 8
  %21 = load i8, ptr @__libc_single_threaded, align 1
  %tobool.i.i.not.i.i.i.i26 = icmp eq i8 %21, 0
  br i1 %tobool.i.i.not.i.i.i.i26, label %if.else.i.i.i.i.i29, label %if.then.i.i.i.i.i27

if.then.i.i.i.i.i27:                              ; preds = %if.then.i.i.i24
  %22 = load i32, ptr %_M_use_count.i.i.i.i25, align 4
  %add.i.i.i.i.i28 = add nsw i32 %22, 1
  store i32 %add.i.i.i.i.i28, ptr %_M_use_count.i.i.i.i25, align 4
  br label %return

if.else.i.i.i.i.i29:                              ; preds = %if.then.i.i.i24
  %23 = atomicrmw volatile add ptr %_M_use_count.i.i.i.i25, i32 1 acq_rel, align 4
  br label %return

sw.epilog:                                        ; preds = %if.end
  tail call void @llvm.memset.p0.i64(ptr noundef nonnull align 8 dereferenceable(16) %agg.result, i8 0, i64 16, i1 false)
  br label %return

return:                                           ; preds = %if.else.i.i.i.i.i29, %if.then.i.i.i.i.i27, %sw.bb11, %if.else.i.i.i.i.i19, %if.then.i.i.i.i.i17, %sw.bb9, %if.else.i.i.i.i.i9, %if.then.i.i.i.i.i7, %sw.bb7, %if.else.i.i.i.i.i, %if.then.i.i.i.i.i, %sw.bb, %sw.epilog
  ret void
}